target datalayout = "e-m:e-p270:32:32-p271:32:32-p272:64:64-i64:64-i128:128-f80:128-n8:16:32:64-S128"
target triple = "x86_64-pc-linux-gnu"

%class.btSequentialImpulseConstraintSolver = type { %class.btConstraintSolver, %class.btAlignedObjectArray, %class.btAlignedObjectArray.0, %class.btAlignedObjectArray.0, %class.btAlignedObjectArray.0, %class.btAlignedObjectArray.0, %class.btAlignedObjectArray.2, %class.btAlignedObjectArray.2, %class.btAlignedObjectArray.2, %class.btAlignedObjectArray.4, i32, i32, %class.btAlignedObjectArray.2, ptr, ptr, ptr, i32, float, i64, %struct.btSolverAnalyticsData }
%class.btConstraintSolver = type { ptr }
%class.btAlignedObjectArray = type <{ [4 x i8], i32, i32, [4 x i8], ptr, i8, [7 x i8] }>
%class.btAlignedObjectArray.0 = type <{ [4 x i8], i32, i32, [4 x i8], ptr, i8, [7 x i8] }>
%class.btAlignedObjectArray.4 = type <{ [4 x i8], i32, i32, [4 x i8], ptr, i8, [7 x i8] }>
%struct.btSolverAnalyticsData = type { i32, i32, i32, i32, i32, double }
%class.btAlignedObjectArray.2 = type <{ [4 x i8], i32, i32, [4 x i8], ptr, i8, [7 x i8] }>
%class.CProfileSample = type { i8 }
%class.btVector3 = type { [4 x float] }
%struct.btSolverBody = type { %class.btTransform, %class.btVector3, %class.btVector3, %class.btVector3, %class.btVector3, %class.btVector3, %class.btVector3, %class.btVector3, %class.btVector3, %class.btVector3, %class.btVector3, %class.btVector3, ptr }
%class.btTransform = type { %class.btMatrix3x3, %class.btVector3 }
%class.btMatrix3x3 = type { [3 x %class.btVector3] }
%class.btManifoldPoint = type <{ %class.btVector3, %class.btVector3, %class.btVector3, %class.btVector3, %class.btVector3, float, float, float, float, float, i32, i32, i32, i32, [4 x i8], ptr, i32, float, float, float, float, float, float, %union.anon.13, %union.anon.14, float, i32, %class.btVector3, %class.btVector3, [4 x i8] }>
%union.anon.13 = type { float }
%union.anon.14 = type { float }
%struct.btContactSolverInfoData = type { float, float, float, float, float, i32, float, float, float, float, float, float, float, float, float, float, i32, float, float, float, float, float, i32, i32, i32, float, float, float, float, i8, i8, i32, i32 }
%"struct.btSequentialImpulseConstraintSolverMt::btContactManifoldCachedInfo" = type { i32, [2 x i32], i32, i32, [4 x i8], [4 x ptr] }
%class.btPersistentManifold = type { %struct.btTypedObject, [4 x i8], [4 x %class.btManifoldPoint], ptr, ptr, i32, float, float, i32, i32, i32 }
%struct.btTypedObject = type { i32 }

@.str.3 = private unnamed_addr constant [41 x i8] c"internalCollectContactManifoldCachedInfo\00", align 1

; Function Attrs: mustprogress nounwind uwtable
define linkonce_odr dso_local noundef float @_ZNK20btPersistentManifold29getContactProcessingThresholdEv(ptr noundef nonnull align 8 dereferenceable(880) %0) #1 comdat align 2 {
  %2 = alloca ptr, align 8
  store ptr %0, ptr %2, align 8, !tbaa !150
  %3 = load ptr, ptr %2, align 8
  %4 = getelementptr inbounds nuw %class.btPersistentManifold, ptr %3, i32 0, i32 7
  %5 = load float, ptr %4, align 8, !tbaa !163
  ret float %5
}

; Function Attrs: mustprogress nounwind uwtable
define linkonce_odr dso_local noundef float @_ZNK15btManifoldPoint11getDistanceEv(ptr noundef nonnull align 8 dereferenceable(204) %0) #1 comdat align 2 {
  %2 = alloca ptr, align 8
  store ptr %0, ptr %2, align 8, !tbaa !80
  %3 = load ptr, ptr %2, align 8
  %4 = getelementptr inbounds nuw %class.btManifoldPoint, ptr %3, i32 0, i32 5
  %5 = load float, ptr %4, align 8, !tbaa !162
  ret float %5
}

; Function Attrs: inlinehint mustprogress nounwind uwtable
define linkonce_odr dso_local noundef nonnull align 8 dereferenceable(204) ptr @_ZN20btPersistentManifold15getContactPointEi(ptr noundef nonnull align 8 dereferenceable(880) %0, i32 noundef %1) #4 comdat align 2 {
  %3 = alloca ptr, align 8
  %4 = alloca i32, align 4
  store ptr %0, ptr %3, align 8, !tbaa !150
  store i32 %1, ptr %4, align 4, !tbaa !9
  %5 = load ptr, ptr %3, align 8
  %6 = getelementptr inbounds nuw %class.btPersistentManifold, ptr %5, i32 0, i32 2
  %7 = load i32, ptr %4, align 4, !tbaa !9
  %8 = sext i32 %7 to i64
  %9 = getelementptr inbounds [4 x %class.btManifoldPoint], ptr %6, i64 0, i64 %8
  ret ptr %9
}

; Function Attrs: inlinehint mustprogress nounwind uwtable
define linkonce_odr dso_local noundef i32 @_ZNK20btPersistentManifold14getNumContactsEv(ptr noundef nonnull align 8 dereferenceable(880) %0) #4 comdat align 2 {
  %2 = alloca ptr, align 8
  store ptr %0, ptr %2, align 8, !tbaa !150
  %3 = load ptr, ptr %2, align 8
  %4 = getelementptr inbounds nuw %class.btPersistentManifold, ptr %3, i32 0, i32 5
  %5 = load i32, ptr %4, align 8, !tbaa !161
  ret i32 %5
}

; Function Attrs: inlinehint mustprogress nounwind uwtable
define linkonce_odr dso_local noundef nonnull align 8 dereferenceable(248) ptr @_ZN20btAlignedObjectArrayI12btSolverBodyEixEi(ptr noundef nonnull align 8 dereferenceable(25) %0, i32 noundef %1) #4 comdat align 2 {
  %3 = alloca ptr, align 8
  %4 = alloca i32, align 4
  store ptr %0, ptr %3, align 8, !tbaa !101
  store i32 %1, ptr %4, align 4, !tbaa !9
  %5 = load ptr, ptr %3, align 8
  %6 = getelementptr inbounds nuw %class.btAlignedObjectArray, ptr %5, i32 0, i32 4
  %7 = load ptr, ptr %6, align 8, !tbaa !103
  %8 = load i32, ptr %4, align 4, !tbaa !9
  %9 = sext i32 %8 to i64
  %10 = getelementptr inbounds %struct.btSolverBody, ptr %7, i64 %9
  ret ptr %10
}

; Function Attrs: inlinehint mustprogress nounwind uwtable
define linkonce_odr dso_local noundef ptr @_ZNK20btPersistentManifold8getBody1Ev(ptr noundef nonnull align 8 dereferenceable(880) %0) #4 comdat align 2 {
  %2 = alloca ptr, align 8
  store ptr %0, ptr %2, align 8, !tbaa !150
  %3 = load ptr, ptr %2, align 8
  %4 = getelementptr inbounds nuw %class.btPersistentManifold, ptr %3, i32 0, i32 4
  %5 = load ptr, ptr %4, align 8, !tbaa !160
  ret ptr %5
}

; Function Attrs: inlinehint mustprogress nounwind uwtable
define linkonce_odr dso_local noundef ptr @_ZNK20btPersistentManifold8getBody0Ev(ptr noundef nonnull align 8 dereferenceable(880) %0) #4 comdat align 2 {
  %2 = alloca ptr, align 8
  store ptr %0, ptr %2, align 8, !tbaa !150
  %3 = load ptr, ptr %2, align 8
  %4 = getelementptr inbounds nuw %class.btPersistentManifold, ptr %3, i32 0, i32 3
  %5 = load ptr, ptr %4, align 8, !tbaa !157
  ret ptr %5
}

; Function Attrs: mustprogress uwtable
define dso_local void @_ZN37btSequentialImpulseConstraintSolverMt40internalCollectContactManifoldCachedInfoEPNS_27btContactManifoldCachedInfoEPP20btPersistentManifoldiRK19btContactSolverInfo(ptr noundef nonnull align 8 dereferenceable(920) %0, ptr noundef %1, ptr noundef %2, i32 noundef %3, ptr noundef nonnull align 4 dereferenceable(128) %4) #2 align 2 personality ptr @__gxx_personality_v0 {
  %6 = alloca ptr, align 8
  %7 = alloca ptr, align 8
  %8 = alloca ptr, align 8
  %9 = alloca i32, align 4
  %10 = alloca ptr, align 8
  %11 = alloca %class.CProfileSample, align 1
  %12 = alloca i32, align 4
  %13 = alloca i32, align 4
  %14 = alloca ptr, align 8
  %15 = alloca ptr, align 8
  %16 = alloca ptr, align 8
  %17 = alloca ptr, align 8
  %18 = alloca i32, align 4
  %19 = alloca ptr, align 8
  %20 = alloca i32, align 4
  %21 = alloca i32, align 4
  %22 = alloca ptr, align 8
  %23 = alloca ptr, align 8
  %24 = alloca i32, align 4
  %25 = alloca i32, align 4
  %26 = alloca ptr, align 8
  store ptr %0, ptr %6, align 8, !tbaa !12
  store ptr %1, ptr %7, align 8, !tbaa !147
  store ptr %2, ptr %8, align 8, !tbaa !148
  store i32 %3, ptr %9, align 4, !tbaa !9
  store ptr %4, ptr %10, align 8, !tbaa !66
  %27 = load ptr, ptr %6, align 8
  call void @llvm.lifetime.start.p0(i64 1, ptr %11) #16
  call void @_ZN14CProfileSampleC1EPKc(ptr noundef nonnull align 1 dereferenceable(1) %11, ptr noundef @.str.3)
  call void @llvm.lifetime.start.p0(i64 4, ptr %12) #16
  store i32 0, ptr %12, align 4, !tbaa !9
  br label %28

28:                                               ; preds = %158, %5
  %29 = load i32, ptr %12, align 4, !tbaa !9
  %30 = load i32, ptr %9, align 4, !tbaa !9
  %31 = icmp slt i32 %29, %30
  br i1 %31, label %33, label %32

32:                                               ; preds = %28
  store i32 2, ptr %13, align 4
  call void @llvm.lifetime.end.p0(i64 4, ptr %12) #16
  br label %167

33:                                               ; preds = %28
  call void @llvm.lifetime.start.p0(i64 8, ptr %14) #16
  %34 = load ptr, ptr %7, align 8, !tbaa !147
  %35 = load i32, ptr %12, align 4, !tbaa !9
  %36 = sext i32 %35 to i64
  %37 = getelementptr inbounds %"struct.btSequentialImpulseConstraintSolverMt::btContactManifoldCachedInfo", ptr %34, i64 %36
  store ptr %37, ptr %14, align 8, !tbaa !147
  call void @llvm.lifetime.start.p0(i64 8, ptr %15) #16
  %38 = load ptr, ptr %8, align 8, !tbaa !148
  %39 = load i32, ptr %12, align 4, !tbaa !9
  %40 = sext i32 %39 to i64
  %41 = getelementptr inbounds ptr, ptr %38, i64 %40
  %42 = load ptr, ptr %41, align 8, !tbaa !150
  store ptr %42, ptr %15, align 8, !tbaa !150
  call void @llvm.lifetime.start.p0(i64 8, ptr %16) #16
  %43 = load ptr, ptr %15, align 8, !tbaa !150
  %44 = invoke noundef ptr @_ZNK20btPersistentManifold8getBody0Ev(ptr noundef nonnull align 8 dereferenceable(880) %43)
          to label %45 unwind label %86

45:                                               ; preds = %33
  store ptr %44, ptr %16, align 8, !tbaa !129
  call void @llvm.lifetime.start.p0(i64 8, ptr %19) #16
  %46 = load ptr, ptr %15, align 8, !tbaa !150
  %47 = invoke noundef ptr @_ZNK20btPersistentManifold8getBody1Ev(ptr noundef nonnull align 8 dereferenceable(880) %46)
          to label %48 unwind label %90

48:                                               ; preds = %45
  store ptr %47, ptr %19, align 8, !tbaa !129
  call void @llvm.lifetime.start.p0(i64 4, ptr %20) #16
  %49 = load ptr, ptr %16, align 8, !tbaa !129
  %50 = load ptr, ptr %10, align 8, !tbaa !66
  %51 = getelementptr inbounds nuw %struct.btContactSolverInfoData, ptr %50, i32 0, i32 3
  %52 = load float, ptr %51, align 4, !tbaa !152
  %53 = invoke noundef i32 @_ZN37btSequentialImpulseConstraintSolverMt29getOrInitSolverBodyThreadsafeER17btCollisionObjectf(ptr noundef nonnull align 8 dereferenceable(920) %27, ptr noundef nonnull align 8 dereferenceable(372) %49, float noundef %52)
          to label %54 unwind label %94

54:                                               ; preds = %48
  store i32 %53, ptr %20, align 4, !tbaa !9
  call void @llvm.lifetime.start.p0(i64 4, ptr %21) #16
  %55 = load ptr, ptr %19, align 8, !tbaa !129
  %56 = load ptr, ptr %10, align 8, !tbaa !66
  %57 = getelementptr inbounds nuw %struct.btContactSolverInfoData, ptr %56, i32 0, i32 3
  %58 = load float, ptr %57, align 4, !tbaa !152
  %59 = invoke noundef i32 @_ZN37btSequentialImpulseConstraintSolverMt29getOrInitSolverBodyThreadsafeER17btCollisionObjectf(ptr noundef nonnull align 8 dereferenceable(920) %27, ptr noundef nonnull align 8 dereferenceable(372) %55, float noundef %58)
          to label %60 unwind label %98

60:                                               ; preds = %54
  store i32 %59, ptr %21, align 4, !tbaa !9
  %61 = load i32, ptr %20, align 4, !tbaa !9
  %62 = load ptr, ptr %14, align 8, !tbaa !147
  %63 = getelementptr inbounds nuw %"struct.btSequentialImpulseConstraintSolverMt::btContactManifoldCachedInfo", ptr %62, i32 0, i32 1
  %64 = getelementptr inbounds [2 x i32], ptr %63, i64 0, i64 0
  store i32 %61, ptr %64, align 4, !tbaa !9
  %65 = load i32, ptr %21, align 4, !tbaa !9
  %66 = load ptr, ptr %14, align 8, !tbaa !147
  %67 = getelementptr inbounds nuw %"struct.btSequentialImpulseConstraintSolverMt::btContactManifoldCachedInfo", ptr %66, i32 0, i32 1
  %68 = getelementptr inbounds [2 x i32], ptr %67, i64 0, i64 1
  store i32 %65, ptr %68, align 4, !tbaa !9
  %69 = load ptr, ptr %14, align 8, !tbaa !147
  %70 = getelementptr inbounds nuw %"struct.btSequentialImpulseConstraintSolverMt::btContactManifoldCachedInfo", ptr %69, i32 0, i32 0
  store i32 0, ptr %70, align 8, !tbaa !153
  call void @llvm.lifetime.start.p0(i64 8, ptr %22) #16
  %71 = getelementptr inbounds nuw %class.btSequentialImpulseConstraintSolver, ptr %27, i32 0, i32 1
  %72 = load i32, ptr %20, align 4, !tbaa !9
  %73 = invoke noundef nonnull align 8 dereferenceable(248) ptr @_ZN20btAlignedObjectArrayI12btSolverBodyEixEi(ptr noundef nonnull align 8 dereferenceable(25) %71, i32 noundef %72)
          to label %74 unwind label %102

74:                                               ; preds = %60
  store ptr %73, ptr %22, align 8, !tbaa !73
  call void @llvm.lifetime.start.p0(i64 8, ptr %23) #16
  %75 = getelementptr inbounds nuw %class.btSequentialImpulseConstraintSolver, ptr %27, i32 0, i32 1
  %76 = load i32, ptr %21, align 4, !tbaa !9
  %77 = invoke noundef nonnull align 8 dereferenceable(248) ptr @_ZN20btAlignedObjectArrayI12btSolverBodyEixEi(ptr noundef nonnull align 8 dereferenceable(25) %75, i32 noundef %76)
          to label %78 unwind label %106

78:                                               ; preds = %74
  store ptr %77, ptr %23, align 8, !tbaa !73
  call void @llvm.lifetime.start.p0(i64 4, ptr %24) #16
  store i32 0, ptr %24, align 4, !tbaa !9
  call void @llvm.lifetime.start.p0(i64 4, ptr %25) #16
  store i32 0, ptr %25, align 4, !tbaa !9
  br label %79

79:                                               ; preds = %150, %78
  %80 = load i32, ptr %25, align 4, !tbaa !9
  %81 = load ptr, ptr %15, align 8, !tbaa !150
  %82 = invoke noundef i32 @_ZNK20btPersistentManifold14getNumContactsEv(ptr noundef nonnull align 8 dereferenceable(880) %81)
          to label %83 unwind label %110

83:                                               ; preds = %79
  %84 = icmp slt i32 %80, %82
  br i1 %84, label %114, label %85

85:                                               ; preds = %83
  store i32 5, ptr %13, align 4
  call void @llvm.lifetime.end.p0(i64 4, ptr %25) #16
  br label %154

86:                                               ; preds = %33
  %87 = landingpad { ptr, i32 }
          cleanup
  %88 = extractvalue { ptr, i32 } %87, 0
  store ptr %88, ptr %17, align 8
  %89 = extractvalue { ptr, i32 } %87, 1
  store i32 %89, ptr %18, align 4
  br label %166

90:                                               ; preds = %45
  %91 = landingpad { ptr, i32 }
          cleanup
  %92 = extractvalue { ptr, i32 } %91, 0
  store ptr %92, ptr %17, align 8
  %93 = extractvalue { ptr, i32 } %91, 1
  store i32 %93, ptr %18, align 4
  br label %165

94:                                               ; preds = %48
  %95 = landingpad { ptr, i32 }
          cleanup
  %96 = extractvalue { ptr, i32 } %95, 0
  store ptr %96, ptr %17, align 8
  %97 = extractvalue { ptr, i32 } %95, 1
  store i32 %97, ptr %18, align 4
  br label %164

98:                                               ; preds = %54
  %99 = landingpad { ptr, i32 }
          cleanup
  %100 = extractvalue { ptr, i32 } %99, 0
  store ptr %100, ptr %17, align 8
  %101 = extractvalue { ptr, i32 } %99, 1
  store i32 %101, ptr %18, align 4
  br label %163

102:                                              ; preds = %60
  %103 = landingpad { ptr, i32 }
          cleanup
  %104 = extractvalue { ptr, i32 } %103, 0
  store ptr %104, ptr %17, align 8
  %105 = extractvalue { ptr, i32 } %103, 1
  store i32 %105, ptr %18, align 4
  br label %162

106:                                              ; preds = %74
  %107 = landingpad { ptr, i32 }
          cleanup
  %108 = extractvalue { ptr, i32 } %107, 0
  store ptr %108, ptr %17, align 8
  %109 = extractvalue { ptr, i32 } %107, 1
  store i32 %109, ptr %18, align 4
  br label %161

110:                                              ; preds = %79
  %111 = landingpad { ptr, i32 }
          cleanup
  %112 = extractvalue { ptr, i32 } %111, 0
  store ptr %112, ptr %17, align 8
  %113 = extractvalue { ptr, i32 } %111, 1
  store i32 %113, ptr %18, align 4
  br label %153

114:                                              ; preds = %83
  call void @llvm.lifetime.start.p0(i64 8, ptr %26) #16
  %115 = load ptr, ptr %15, align 8, !tbaa !150
  %116 = load i32, ptr %25, align 4, !tbaa !9
  %117 = invoke noundef nonnull align 8 dereferenceable(204) ptr @_ZN20btPersistentManifold15getContactPointEi(ptr noundef nonnull align 8 dereferenceable(880) %115, i32 noundef %116)
          to label %118 unwind label %145

118:                                              ; preds = %114
  store ptr %117, ptr %26, align 8, !tbaa !80
  %119 = load ptr, ptr %26, align 8, !tbaa !80
  %120 = invoke noundef float @_ZNK15btManifoldPoint11getDistanceEv(ptr noundef nonnull align 8 dereferenceable(204) %119)
          to label %121 unwind label %145

121:                                              ; preds = %118
  %122 = load ptr, ptr %15, align 8, !tbaa !150
  %123 = invoke noundef float @_ZNK20btPersistentManifold29getContactProcessingThresholdEv(ptr noundef nonnull align 8 dereferenceable(880) %122)
          to label %124 unwind label %145

124:                                              ; preds = %121
  %125 = fcmp ole float %120, %123
  br i1 %125, label %126, label %149

126:                                              ; preds = %124
  %127 = load ptr, ptr %26, align 8, !tbaa !80
  %128 = load ptr, ptr %14, align 8, !tbaa !147
  %129 = getelementptr inbounds nuw %"struct.btSequentialImpulseConstraintSolverMt::btContactManifoldCachedInfo", ptr %128, i32 0, i32 5
  %130 = load i32, ptr %24, align 4, !tbaa !9
  %131 = sext i32 %130 to i64
  %132 = getelementptr inbounds [4 x ptr], ptr %129, i64 0, i64 %131
  store ptr %127, ptr %132, align 8, !tbaa !80
  %133 = load ptr, ptr %26, align 8, !tbaa !80
  %134 = getelementptr inbounds nuw %class.btManifoldPoint, ptr %133, i32 0, i32 7
  %135 = load float, ptr %134, align 8, !tbaa !88
  %136 = fcmp ogt float %135, 0.000000e+00
  %137 = load ptr, ptr %14, align 8, !tbaa !147
  %138 = getelementptr inbounds nuw %"struct.btSequentialImpulseConstraintSolverMt::btContactManifoldCachedInfo", ptr %137, i32 0, i32 4
  %139 = load i32, ptr %24, align 4, !tbaa !9
  %140 = sext i32 %139 to i64
  %141 = getelementptr inbounds [4 x i8], ptr %138, i64 0, i64 %140
  %142 = zext i1 %136 to i8
  store i8 %142, ptr %141, align 1, !tbaa !131
  %143 = load i32, ptr %24, align 4, !tbaa !9
  %144 = add nsw i32 %143, 1
  store i32 %144, ptr %24, align 4, !tbaa !9
  br label %149

145:                                              ; preds = %121, %118, %114
  %146 = landingpad { ptr, i32 }
          cleanup
  %147 = extractvalue { ptr, i32 } %146, 0
  store ptr %147, ptr %17, align 8
  %148 = extractvalue { ptr, i32 } %146, 1
  store i32 %148, ptr %18, align 4
  call void @llvm.lifetime.end.p0(i64 8, ptr %26) #16
  br label %153

149:                                              ; preds = %126, %124
  call void @llvm.lifetime.end.p0(i64 8, ptr %26) #16
  br label %150

150:                                              ; preds = %149
  %151 = load i32, ptr %25, align 4, !tbaa !9
  %152 = add nsw i32 %151, 1
  store i32 %152, ptr %25, align 4, !tbaa !9
  br label %79, !llvm.loop !155

153:                                              ; preds = %145, %110
  call void @llvm.lifetime.end.p0(i64 4, ptr %25) #16
  call void @llvm.lifetime.end.p0(i64 4, ptr %24) #16
  br label %161

154:                                              ; preds = %85
  %155 = load i32, ptr %24, align 4, !tbaa !9
  %156 = load ptr, ptr %14, align 8, !tbaa !147
  %157 = getelementptr inbounds nuw %"struct.btSequentialImpulseConstraintSolverMt::btContactManifoldCachedInfo", ptr %156, i32 0, i32 0
  store i32 %155, ptr %157, align 8, !tbaa !153
  call void @llvm.lifetime.end.p0(i64 4, ptr %24) #16
  call void @llvm.lifetime.end.p0(i64 8, ptr %23) #16
  call void @llvm.lifetime.end.p0(i64 8, ptr %22) #16
  call void @llvm.lifetime.end.p0(i64 4, ptr %21) #16
  call void @llvm.lifetime.end.p0(i64 4, ptr %20) #16
  call void @llvm.lifetime.end.p0(i64 8, ptr %19) #16
  call void @llvm.lifetime.end.p0(i64 8, ptr %16) #16
  call void @llvm.lifetime.end.p0(i64 8, ptr %15) #16
  call void @llvm.lifetime.end.p0(i64 8, ptr %14) #16
  br label %158

158:                                              ; preds = %154
  %159 = load i32, ptr %12, align 4, !tbaa !9
  %160 = add nsw i32 %159, 1
  store i32 %160, ptr %12, align 4, !tbaa !9
  br label %28, !llvm.loop !156

161:                                              ; preds = %153, %106
  call void @llvm.lifetime.end.p0(i64 8, ptr %23) #16
  br label %162

162:                                              ; preds = %161, %102
  call void @llvm.lifetime.end.p0(i64 8, ptr %22) #16
  br label %163

163:                                              ; preds = %162, %98
  call void @llvm.lifetime.end.p0(i64 4, ptr %21) #16
  br label %164

164:                                              ; preds = %163, %94
  call void @llvm.lifetime.end.p0(i64 4, ptr %20) #16
  br label %165

165:                                              ; preds = %164, %90
  call void @llvm.lifetime.end.p0(i64 8, ptr %19) #16
  br label %166

166:                                              ; preds = %165, %86
  call void @llvm.lifetime.end.p0(i64 8, ptr %16) #16
  call void @llvm.lifetime.end.p0(i64 8, ptr %15) #16
  call void @llvm.lifetime.end.p0(i64 8, ptr %14) #16
  call void @llvm.lifetime.end.p0(i64 4, ptr %12) #16
  call void @_ZN14CProfileSampleD1Ev(ptr noundef nonnull align 1 dereferenceable(1) %11) #16
  call void @llvm.lifetime.end.p0(i64 1, ptr %11) #16
  br label %168

167:                                              ; preds = %32
  call void @_ZN14CProfileSampleD1Ev(ptr noundef nonnull align 1 dereferenceable(1) %11) #16
  call void @llvm.lifetime.end.p0(i64 1, ptr %11) #16
  ret void

168:                                              ; preds = %166
  %169 = load ptr, ptr %17, align 8
  %170 = load i32, ptr %18, align 4
  %171 = insertvalue { ptr, i32 } poison, ptr %169, 0
  %172 = insertvalue { ptr, i32 } %171, i32 %170, 1
  resume { ptr, i32 } %172
}