; Function Attrs: mustprogress uwtable
define dso_local void @_ZN37btSequentialImpulseConstraintSolverMt40internalCollectContactManifoldCachedInfoEPNS_27btContactManifoldCachedInfoEPP20btPersistentManifoldiRK19btContactSolverInfo(ptr noundef nonnull align 8 dereferenceable(920) %0, ptr noundef writeonly captures(none) %1, ptr noundef readonly captures(none) %2, i32 noundef %3, ptr noundef nonnull readonly align 4 captures(none) dereferenceable(128) %4) local_unnamed_addr #0 align 2 personality ptr @__gxx_personality_v0 {
  %6 = alloca %class.CProfileSample, align 1
  call void @llvm.lifetime.start.p0(i64 1, ptr nonnull %6) #16
  call void @_ZN14CProfileSampleC1EPKc(ptr noundef nonnull align 1 dereferenceable(1) %6, ptr noundef nonnull @.str.3)
  %7 = icmp sgt i32 %3, 0
  br i1 %7, label %.lr.ph47, label %._crit_edge48

.lr.ph47:                                         ; preds = %5
  %8 = getelementptr inbounds nuw i8, ptr %4, i64 12
  %wide.trip.count53 = zext nneg i32 %3 to i64
  br label %9

._crit_edge48:                                    ; preds = %._crit_edge, %5
  call void @_ZN14CProfileSampleD1Ev(ptr noundef nonnull align 1 dereferenceable(1) %6) #16
  call void @llvm.lifetime.end.p0(i64 1, ptr nonnull %6) #16
  ret void

9:                                                ; preds = %.lr.ph47, %._crit_edge
  %indvars.iv50 = phi i64 [ 0, %.lr.ph47 ], [ %indvars.iv.next51, %._crit_edge ]
  %10 = getelementptr inbounds nuw %"struct.btSequentialImpulseConstraintSolverMt::btContactManifoldCachedInfo", ptr %1, i64 %indvars.iv50
  %11 = getelementptr inbounds nuw ptr, ptr %2, i64 %indvars.iv50
  %12 = load ptr, ptr %11, align 8, !tbaa !124
  %13 = getelementptr inbounds nuw i8, ptr %12, i64 840
  %14 = load ptr, ptr %13, align 8, !tbaa !126
  %15 = getelementptr inbounds nuw i8, ptr %12, i64 848
  %16 = load ptr, ptr %15, align 8, !tbaa !130
  %17 = load float, ptr %8, align 4, !tbaa !131
  %18 = invoke noundef i32 @_ZN37btSequentialImpulseConstraintSolverMt29getOrInitSolverBodyThreadsafeER17btCollisionObjectf(ptr noundef nonnull align 8 dereferenceable(920) %0, ptr noundef nonnull align 8 dereferenceable(372) %14, float noundef %17)
          to label %19 unwind label %33

19:                                               ; preds = %9
  %20 = load float, ptr %8, align 4, !tbaa !131
  %21 = invoke noundef i32 @_ZN37btSequentialImpulseConstraintSolverMt29getOrInitSolverBodyThreadsafeER17btCollisionObjectf(ptr noundef nonnull align 8 dereferenceable(920) %0, ptr noundef nonnull align 8 dereferenceable(372) %16, float noundef %20)
          to label %22 unwind label %35

22:                                               ; preds = %19
  %23 = getelementptr inbounds nuw i8, ptr %10, i64 4
  store i32 %18, ptr %23, align 4, !tbaa !67
  %24 = getelementptr inbounds nuw i8, ptr %10, i64 8
  store i32 %21, ptr %24, align 4, !tbaa !67
  store i32 0, ptr %10, align 8, !tbaa !132
  %25 = getelementptr inbounds nuw i8, ptr %12, i64 856
  %26 = load i32, ptr %25, align 8, !tbaa !134
  %27 = icmp sgt i32 %26, 0
  br i1 %27, label %.lr.ph, label %._crit_edge

.lr.ph:                                           ; preds = %22
  %28 = getelementptr inbounds nuw i8, ptr %12, i64 8
  %29 = getelementptr inbounds nuw i8, ptr %12, i64 864
  %30 = load float, ptr %29, align 8, !tbaa !135
  %31 = getelementptr inbounds nuw i8, ptr %10, i64 24
  %32 = getelementptr inbounds nuw i8, ptr %10, i64 20
  %wide.trip.count = zext nneg i32 %26 to i64
  br label %37

._crit_edge:                                      ; preds = %51, %22
  %.039.lcssa = phi i32 [ 0, %22 ], [ %.1, %51 ]
  store i32 %.039.lcssa, ptr %10, align 8, !tbaa !132
  %indvars.iv.next51 = add nuw nsw i64 %indvars.iv50, 1
  %exitcond54.not = icmp eq i64 %indvars.iv.next51, %wide.trip.count53
  br i1 %exitcond54.not, label %._crit_edge48, label %9, !llvm.loop !136

33:                                               ; preds = %9
  %34 = landingpad { ptr, i32 }
          cleanup
  br label %52

35:                                               ; preds = %19
  %36 = landingpad { ptr, i32 }
          cleanup
  br label %52

37:                                               ; preds = %.lr.ph, %51
  %indvars.iv = phi i64 [ 0, %.lr.ph ], [ %indvars.iv.next, %51 ]
  %.03943 = phi i32 [ 0, %.lr.ph ], [ %.1, %51 ]
  %38 = getelementptr inbounds nuw [4 x %class.btManifoldPoint], ptr %28, i64 0, i64 %indvars.iv
  %39 = getelementptr inbounds nuw i8, ptr %38, i64 80
  %40 = load float, ptr %39, align 8, !tbaa !137
  %41 = fcmp ugt float %40, %30
  br i1 %41, label %51, label %42

42:                                               ; preds = %37
  %43 = sext i32 %.03943 to i64
  %44 = getelementptr inbounds [4 x ptr], ptr %31, i64 0, i64 %43
  store ptr %38, ptr %44, align 8, !tbaa !138
  %45 = getelementptr inbounds nuw i8, ptr %38, i64 88
  %46 = load float, ptr %45, align 8, !tbaa !84
  %47 = fcmp ogt float %46, 0.000000e+00
  %48 = getelementptr inbounds [4 x i8], ptr %32, i64 0, i64 %43
  %49 = zext i1 %47 to i8
  store i8 %49, ptr %48, align 1, !tbaa !140
  %50 = add nsw i32 %.03943, 1
  br label %51

51:                                               ; preds = %42, %37
  %.1 = phi i32 [ %50, %42 ], [ %.03943, %37 ]
  %indvars.iv.next = add nuw nsw i64 %indvars.iv, 1
  %exitcond.not = icmp eq i64 %indvars.iv.next, %wide.trip.count
  br i1 %exitcond.not, label %._crit_edge, label %37, !llvm.loop !141

52:                                               ; preds = %35, %33
  %.pn = phi { ptr, i32 } [ %36, %35 ], [ %34, %33 ]
  call void @_ZN14CProfileSampleD1Ev(ptr noundef nonnull align 1 dereferenceable(1) %6) #16
  call void @llvm.lifetime.end.p0(i64 1, ptr nonnull %6) #16
  resume { ptr, i32 } %.pn
}